; Function Attrs: mustprogress nofree norecurse nosync nounwind ssp willreturn memory(argmem: readwrite) uwtable
define void @_ZN6open3d13visualization12RenderOption15ChangePointSizeEd(ptr noundef nonnull align 8 captures(none) dereferenceable(497) %0, double noundef %1) local_unnamed_addr #9 align 2 {
  %3 = getelementptr inbounds nuw i8, ptr %0, i64 424
  %4 = load double, ptr %3, align 8, !tbaa !26
  %5 = getelementptr inbounds nuw i8, ptr %0, i64 24
  %6 = load double, ptr %5, align 8, !tbaa !47
  %7 = tail call double @llvm.fmuladd.f64(double %1, double %6, double %4)
  %8 = getelementptr inbounds nuw i8, ptr %0, i64 8
  %9 = load double, ptr %8, align 8, !tbaa !25
  %10 = fcmp olt double %9, %7
  %11 = getelementptr inbounds nuw i8, ptr %0, i64 16
  %12 = select i1 %10, double %9, double %7
  %13 = load double, ptr %11, align 8, !tbaa !25
  %14 = fcmp olt double %12, %13
  %15 = select i1 %14, double %13, double %12
  store double %15, ptr %3, align 8, !tbaa !26
  ret void
}